target datalayout = "e-m:e-p270:32:32-p271:32:32-p272:64:64-i64:64-i128:128-f80:128-n8:16:32:64-S128"
target triple = "x86_64-pc-linux-gnu"

%struct.PJconsts = type { ptr, ptr, ptr, ptr, ptr, ptr, ptr, ptr, ptr, ptr, ptr, ptr, i32, ptr, ptr, ptr, ptr, ptr, ptr, ptr, ptr, double, double, double, double, double, double, double, double, double, double, double, double, double, double, double, double, double, double, double, double, double, double, i32, i32, i32, i32, i32, i32, i32, i32, i32, i32, i32, ptr, ptr, ptr, ptr, ptr, ptr, double, double, double, double, double, double, double, double, double, double, double, i32, [7 x double], i32, ptr, ptr, double, double, i32, [4 x i8], %"class.std::shared_ptr", i8, double, i8, %"class.std::__cxx11::basic_string", %"class.std::__cxx11::basic_string", %"class.std::__cxx11::basic_string", i8, %"class.std::vector", i32, %"class.std::vector.3", i32, i8, i8, i8, ptr }
%"class.std::shared_ptr" = type { %"class.std::__shared_ptr" }
%"class.std::__shared_ptr" = type { ptr, %"class.std::__shared_count" }
%"class.std::__shared_count" = type { ptr }
%"class.std::__cxx11::basic_string" = type { %"struct.std::__cxx11::basic_string<char>::_Alloc_hider", i64, %union.anon }
%"struct.std::__cxx11::basic_string<char>::_Alloc_hider" = type { ptr }
%union.anon = type { i64, [8 x i8] }
%"class.std::vector" = type { %"struct.std::_Vector_base" }
%"struct.std::_Vector_base" = type { %"struct.std::_Vector_base<osgeo::proj::operation::GridDescription, std::allocator<osgeo::proj::operation::GridDescription>>::_Vector_impl" }
%"struct.std::_Vector_base<osgeo::proj::operation::GridDescription, std::allocator<osgeo::proj::operation::GridDescription>>::_Vector_impl" = type { %"struct.std::_Vector_base<osgeo::proj::operation::GridDescription, std::allocator<osgeo::proj::operation::GridDescription>>::_Vector_impl_data" }
%"struct.std::_Vector_base<osgeo::proj::operation::GridDescription, std::allocator<osgeo::proj::operation::GridDescription>>::_Vector_impl_data" = type { ptr, ptr, ptr }
%"class.std::vector.3" = type { %"struct.std::_Vector_base.4" }
%"struct.std::_Vector_base.4" = type { %"struct.std::_Vector_base<PJCoordOperation, std::allocator<PJCoordOperation>>::_Vector_impl" }
%"struct.std::_Vector_base<PJCoordOperation, std::allocator<PJCoordOperation>>::_Vector_impl" = type { %"struct.std::_Vector_base<PJCoordOperation, std::allocator<PJCoordOperation>>::_Vector_impl_data" }
%"struct.std::_Vector_base<PJCoordOperation, std::allocator<PJCoordOperation>>::_Vector_impl_data" = type { ptr, ptr, ptr }
%"struct.(anonymous namespace)::pj_sconics_data" = type { double, double, double, double, double, double, i32 }
%struct.PJ_LP = type { double, double }
%struct.PJ_XY = type { double, double }

; Function Attrs: mustprogress nounwind uwtable
define internal { double, double } @_ZL17sconics_s_forward5PJ_LPP8PJconsts(double %0, double %1, ptr noundef %2) #6 {
  %4 = alloca %struct.PJ_XY, align 8
  %5 = alloca %struct.PJ_LP, align 8
  %6 = alloca ptr, align 8
  %7 = alloca ptr, align 8
  %8 = alloca double, align 8
  %9 = getelementptr inbounds nuw { double, double }, ptr %5, i32 0, i32 0
  store double %0, ptr %9, align 8
  %10 = getelementptr inbounds nuw { double, double }, ptr %5, i32 0, i32 1
  store double %1, ptr %10, align 8
  store ptr %2, ptr %6, align 8, !tbaa !3
  call void @llvm.memset.p0.i64(ptr align 8 %4, i8 0, i64 16, i1 false)
  call void @llvm.lifetime.start.p0(i64 8, ptr %7) #8
  %11 = load ptr, ptr %6, align 8, !tbaa !3
  %12 = getelementptr inbounds nuw %struct.PJconsts, ptr %11, i32 0, i32 11
  %13 = load ptr, ptr %12, align 8, !tbaa !45
  store ptr %13, ptr %7, align 8, !tbaa !43
  call void @llvm.lifetime.start.p0(i64 8, ptr %8) #8
  %14 = load ptr, ptr %7, align 8, !tbaa !43
  %15 = getelementptr inbounds nuw %"struct.(anonymous namespace)::pj_sconics_data", ptr %14, i32 0, i32 6
  %16 = load i32, ptr %15, align 8, !tbaa !46
  switch i32 %16, label %45 [
    i32 2, label %17
    i32 4, label %29
  ]

17:                                               ; preds = %3
  %18 = load ptr, ptr %7, align 8, !tbaa !43
  %19 = getelementptr inbounds nuw %"struct.(anonymous namespace)::pj_sconics_data", ptr %18, i32 0, i32 1
  %20 = load double, ptr %19, align 8, !tbaa !52
  %21 = load ptr, ptr %7, align 8, !tbaa !43
  %22 = getelementptr inbounds nuw %"struct.(anonymous namespace)::pj_sconics_data", ptr %21, i32 0, i32 3
  %23 = load double, ptr %22, align 8, !tbaa !49
  %24 = getelementptr inbounds nuw %struct.PJ_LP, ptr %5, i32 0, i32 1
  %25 = load double, ptr %24, align 8, !tbaa !70
  %26 = fsub double %23, %25
  %27 = call double @tan(double noundef %26) #8, !tbaa !48
  %28 = fadd double %20, %27
  store double %28, ptr %8, align 8, !tbaa !51
  br label %52

29:                                               ; preds = %3
  %30 = load ptr, ptr %7, align 8, !tbaa !43
  %31 = getelementptr inbounds nuw %"struct.(anonymous namespace)::pj_sconics_data", ptr %30, i32 0, i32 5
  %32 = load double, ptr %31, align 8, !tbaa !55
  %33 = load ptr, ptr %7, align 8, !tbaa !43
  %34 = getelementptr inbounds nuw %"struct.(anonymous namespace)::pj_sconics_data", ptr %33, i32 0, i32 4
  %35 = load double, ptr %34, align 8, !tbaa !56
  %36 = getelementptr inbounds nuw %struct.PJ_LP, ptr %5, i32 0, i32 1
  %37 = load double, ptr %36, align 8, !tbaa !70
  %38 = load ptr, ptr %7, align 8, !tbaa !43
  %39 = getelementptr inbounds nuw %"struct.(anonymous namespace)::pj_sconics_data", ptr %38, i32 0, i32 3
  %40 = load double, ptr %39, align 8, !tbaa !49
  %41 = fsub double %37, %40
  %42 = call double @tan(double noundef %41) #8, !tbaa !48
  %43 = fsub double %35, %42
  %44 = fmul double %32, %43
  store double %44, ptr %8, align 8, !tbaa !51
  br label %52

45:                                               ; preds = %3
  %46 = load ptr, ptr %7, align 8, !tbaa !43
  %47 = getelementptr inbounds nuw %"struct.(anonymous namespace)::pj_sconics_data", ptr %46, i32 0, i32 1
  %48 = load double, ptr %47, align 8, !tbaa !52
  %49 = getelementptr inbounds nuw %struct.PJ_LP, ptr %5, i32 0, i32 1
  %50 = load double, ptr %49, align 8, !tbaa !70
  %51 = fsub double %48, %50
  store double %51, ptr %8, align 8, !tbaa !51
  br label %52

52:                                               ; preds = %45, %29, %17
  %53 = load double, ptr %8, align 8, !tbaa !51
  %54 = load ptr, ptr %7, align 8, !tbaa !43
  %55 = getelementptr inbounds nuw %"struct.(anonymous namespace)::pj_sconics_data", ptr %54, i32 0, i32 0
  %56 = load double, ptr %55, align 8, !tbaa !50
  %57 = getelementptr inbounds nuw %struct.PJ_LP, ptr %5, i32 0, i32 0
  %58 = load double, ptr %57, align 8, !tbaa !68
  %59 = fmul double %58, %56
  store double %59, ptr %57, align 8, !tbaa !68
  %60 = call double @sin(double noundef %59) #8, !tbaa !48
  %61 = fmul double %53, %60
  %62 = getelementptr inbounds nuw %struct.PJ_XY, ptr %4, i32 0, i32 0
  store double %61, ptr %62, align 8, !tbaa !67
  %63 = load ptr, ptr %7, align 8, !tbaa !43
  %64 = getelementptr inbounds nuw %"struct.(anonymous namespace)::pj_sconics_data", ptr %63, i32 0, i32 2
  %65 = load double, ptr %64, align 8, !tbaa !54
  %66 = load double, ptr %8, align 8, !tbaa !51
  %67 = getelementptr inbounds nuw %struct.PJ_LP, ptr %5, i32 0, i32 0
  %68 = load double, ptr %67, align 8, !tbaa !68
  %69 = call double @cos(double noundef %68) #8, !tbaa !48
  %70 = fneg double %66
  %71 = call double @llvm.fmuladd.f64(double %70, double %69, double %65)
  %72 = getelementptr inbounds nuw %struct.PJ_XY, ptr %4, i32 0, i32 1
  store double %71, ptr %72, align 8, !tbaa !65
  call void @llvm.lifetime.end.p0(i64 8, ptr %8) #8
  call void @llvm.lifetime.end.p0(i64 8, ptr %7) #8
  %73 = load { double, double }, ptr %4, align 8
  ret { double, double } %73
}