; Function Attrs: mustprogress nofree nounwind willreturn memory(readwrite, inaccessiblemem: write) uwtable
define internal { double, double } @_ZL17sconics_s_forward5PJ_LPP8PJconsts(double %0, double %1, ptr noundef readonly captures(none) %2) #5 {
  %4 = getelementptr inbounds nuw i8, ptr %2, i64 88
  %5 = load ptr, ptr %4, align 8, !tbaa !40
  %6 = getelementptr inbounds nuw i8, ptr %5, i64 48
  %7 = load i32, ptr %6, align 8, !tbaa !41
  switch i32 %7, label %27 [
    i32 2, label %8
    i32 4, label %16
  ]

8:                                                ; preds = %3
  %9 = getelementptr inbounds nuw i8, ptr %5, i64 8
  %10 = load double, ptr %9, align 8, !tbaa !49
  %11 = getelementptr inbounds nuw i8, ptr %5, i64 24
  %12 = load double, ptr %11, align 8, !tbaa !46
  %13 = fsub double %12, %1
  %14 = tail call double @tan(double noundef %13) #7, !tbaa !47
  %15 = fadd double %10, %14
  br label %31

16:                                               ; preds = %3
  %17 = getelementptr inbounds nuw i8, ptr %5, i64 40
  %18 = load double, ptr %17, align 8, !tbaa !52
  %19 = getelementptr inbounds nuw i8, ptr %5, i64 32
  %20 = load double, ptr %19, align 8, !tbaa !53
  %21 = getelementptr inbounds nuw i8, ptr %5, i64 24
  %22 = load double, ptr %21, align 8, !tbaa !46
  %23 = fsub double %1, %22
  %24 = tail call double @tan(double noundef %23) #7, !tbaa !47
  %25 = fsub double %20, %24
  %26 = fmul double %18, %25
  br label %31

27:                                               ; preds = %3
  %28 = getelementptr inbounds nuw i8, ptr %5, i64 8
  %29 = load double, ptr %28, align 8, !tbaa !49
  %30 = fsub double %29, %1
  br label %31

31:                                               ; preds = %27, %16, %8
  %.0 = phi double [ %30, %27 ], [ %26, %16 ], [ %15, %8 ]
  %32 = load double, ptr %5, align 8, !tbaa !48
  %33 = fmul double %0, %32
  %34 = tail call double @sin(double noundef %33) #7, !tbaa !47
  %35 = fmul double %.0, %34
  %36 = getelementptr inbounds nuw i8, ptr %5, i64 16
  %37 = load double, ptr %36, align 8, !tbaa !51
  %38 = tail call double @cos(double noundef %33) #7, !tbaa !47
  %39 = fneg double %.0
  %40 = tail call double @llvm.fmuladd.f64(double %39, double %38, double %37)
  %.fca.0.insert = insertvalue { double, double } poison, double %35, 0
  %.fca.1.insert = insertvalue { double, double } %.fca.0.insert, double %40, 1
  ret { double, double } %.fca.1.insert
}